---
triple:          'arm64-apple-darwin'
binary-path:     '2096'
relocations:
  - { offset: 0x2FDC, size: 0x8, addend: 0x0, symName: __ZNSt3__124__put_character_sequenceB8ne180100IcNS_11char_traitsIcEEEERNS_13basic_ostreamIT_T0_EES7_PKS4_m, symObjAddr: 0xD2C, symBinAddr: 0x1000032E8, symSize: 0x1EC }
  - { offset: 0x3E68, size: 0x8, addend: 0x0, symName: __ZNSt3__13maxB8ne180100IiEERKT_S3_S3_, symObjAddr: 0x57C, symBinAddr: 0x100002B38, symSize: 0x2C }
  - { offset: 0x3EAB, size: 0x8, addend: 0x0, symName: __ZNSt3__13maxB8ne180100IiEET_St16initializer_listIS1_E, symObjAddr: 0x5A8, symBinAddr: 0x100002B64, symSize: 0x50 }
  - { offset: 0x3EE0, size: 0x8, addend: 0x0, symName: __ZNSt3__13minB8ne180100IiEERKT_S3_S3_, symObjAddr: 0x5F8, symBinAddr: 0x100002BB4, symSize: 0x2C }
  - { offset: 0x3F23, size: 0x8, addend: 0x0, symName: __ZNSt3__13minB8ne180100IiEET_St16initializer_listIS1_E, symObjAddr: 0x624, symBinAddr: 0x100002BE0, symSize: 0x50 }
  - { offset: 0x3F58, size: 0x8, addend: 0x0, symName: __ZNSt3__1lsB8ne180100INS_11char_traitsIcEEEERNS_13basic_ostreamIcT_EES6_c, symObjAddr: 0x674, symBinAddr: 0x100002C30, symSize: 0x34 }
  - { offset: 0x3F9E, size: 0x8, addend: 0x0, symName: __ZNSt3__111max_elementB8ne180100IPiEET_S2_S2_, symObjAddr: 0x6A8, symBinAddr: 0x100002C64, symSize: 0x2C }
  - { offset: 0x3FE1, size: 0x8, addend: 0x0, symName: __ZNSt3__111min_elementB8ne180100IPiEET_S2_S2_, symObjAddr: 0x6D4, symBinAddr: 0x100002C90, symSize: 0x2C }
  - { offset: 0x4024, size: 0x8, addend: 0x0, symName: __ZNSt3__13maxB8ne180100IiNS_6__lessIvvEEEERKT_S5_S5_T0_, symObjAddr: 0x700, symBinAddr: 0x100002CBC, symSize: 0x54 }
  - { offset: 0x40C3, size: 0x8, addend: 0x0, symName: __ZNSt3__111max_elementB8ne180100IPKiNS_6__lessIvvEEEET_S5_S5_T0_, symObjAddr: 0x788, symBinAddr: 0x100002D44, symSize: 0x30 }
  - { offset: 0x411D, size: 0x8, addend: 0x0, symName: __ZNSt3__113__max_elementB8ne180100IRNS_6__lessIvvEEPKiEET0_S6_S6_T_, symObjAddr: 0x7F0, symBinAddr: 0x100002DAC, symSize: 0x9C }
  - { offset: 0x4193, size: 0x8, addend: 0x0, symName: __ZNSt3__13minB8ne180100IiNS_6__lessIvvEEEERKT_S5_S5_T0_, symObjAddr: 0x88C, symBinAddr: 0x100002E48, symSize: 0x54 }
  - { offset: 0x41ED, size: 0x8, addend: 0x0, symName: __ZNSt3__111min_elementB8ne180100IPKiNS_6__lessIvvEEEET_S5_S5_T0_, symObjAddr: 0x8E0, symBinAddr: 0x100002E9C, symSize: 0x30 }
  - { offset: 0x4247, size: 0x8, addend: 0x0, symName: __ZNSt3__113__min_elementB8ne180100IRNS_6__lessIvvEEPKiS5_EET0_S6_T1_T_, symObjAddr: 0x910, symBinAddr: 0x100002ECC, symSize: 0x3C }
  - { offset: 0x42B8, size: 0x8, addend: 0x0, symName: __ZNSt3__113__min_elementB8ne180100IRNS_6__lessIvvEEPKiS5_NS_10__identityEEET0_S7_T1_T_RT2_, symObjAddr: 0x94C, symBinAddr: 0x100002F08, symSize: 0xD8 }
  - { offset: 0x4340, size: 0x8, addend: 0x0, symName: __ZNSt3__18__invokeB8ne180100IRNS_6__lessIvvEEJRKiS5_EEEDTclclsr3stdE7declvalIT_EEspclsr3stdE7declvalIT0_EEEEOS6_DpOS7_, symObjAddr: 0xA24, symBinAddr: 0x100002FE0, symSize: 0x38 }
  - { offset: 0x43A5, size: 0x8, addend: 0x0, symName: __ZNSt3__18__invokeB8ne180100IRNS_10__identityEJRKiEEEDTclclsr3stdE7declvalIT_EEspclsr3stdE7declvalIT0_EEEEOS5_DpOS6_, symObjAddr: 0xA5C, symBinAddr: 0x100003018, symSize: 0x2C }
  - { offset: 0x4446, size: 0x8, addend: 0x0, symName: __ZNSt3__111max_elementB8ne180100IPiNS_6__lessIvvEEEET_S4_S4_T0_, symObjAddr: 0xAA0, symBinAddr: 0x10000305C, symSize: 0x30 }
  - { offset: 0x44A0, size: 0x8, addend: 0x0, symName: __ZNSt3__113__max_elementB8ne180100IRNS_6__lessIvvEEPiEET0_S5_S5_T_, symObjAddr: 0xAD0, symBinAddr: 0x10000308C, symSize: 0x9C }
  - { offset: 0x4516, size: 0x8, addend: 0x0, symName: __ZNSt3__111min_elementB8ne180100IPiNS_6__lessIvvEEEET_S4_S4_T0_, symObjAddr: 0xB6C, symBinAddr: 0x100003128, symSize: 0x30 }
  - { offset: 0x4570, size: 0x8, addend: 0x0, symName: __ZNSt3__113__min_elementB8ne180100IRNS_6__lessIvvEEPiS4_EET0_S5_T1_T_, symObjAddr: 0xB9C, symBinAddr: 0x100003158, symSize: 0x3C }
  - { offset: 0x45E1, size: 0x8, addend: 0x0, symName: __ZNSt3__113__min_elementB8ne180100IRNS_6__lessIvvEEPiS4_NS_10__identityEEET0_S6_T1_T_RT2_, symObjAddr: 0xBD8, symBinAddr: 0x100003194, symSize: 0xD8 }
  - { offset: 0x4669, size: 0x8, addend: 0x0, symName: __ZNSt3__18__invokeB8ne180100IRNS_6__lessIvvEEJRiS4_EEEDTclclsr3stdE7declvalIT_EEspclsr3stdE7declvalIT0_EEEEOS5_DpOS6_, symObjAddr: 0xCB0, symBinAddr: 0x10000326C, symSize: 0x38 }
  - { offset: 0x46CE, size: 0x8, addend: 0x0, symName: __ZNSt3__18__invokeB8ne180100IRNS_10__identityEJRiEEEDTclclsr3stdE7declvalIT_EEspclsr3stdE7declvalIT0_EEEEOS4_DpOS5_, symObjAddr: 0xCE8, symBinAddr: 0x1000032A4, symSize: 0x2C }
  - { offset: 0x471F, size: 0x8, addend: 0x0, symName: __ZNSt3__116__pad_and_outputB8ne180100IcNS_11char_traitsIcEEEENS_19ostreambuf_iteratorIT_T0_EES6_PKS4_S8_S8_RNS_8ios_baseES4_, symObjAddr: 0xF34, symBinAddr: 0x1000034F0, symSize: 0x240 }
  - { offset: 0x47EE, size: 0x8, addend: 0x0, symName: __ZNSt3__112__to_addressB8ne180100IcEEPT_S2_, symObjAddr: 0x14AC, symBinAddr: 0x100003A68, symSize: 0x14 }
  - { offset: 0x4856, size: 0x8, addend: 0x0, symName: __ZNSt3__19use_facetB8ne180100INS_5ctypeIcEEEERKT_RKNS_6localeE, symObjAddr: 0x1764, symBinAddr: 0x100003D20, symSize: 0x2C }
  - { offset: 0x5D8D, size: 0x8, addend: 0x0, symName: _main, symObjAddr: 0x0, symBinAddr: 0x1000025BC, symSize: 0x550 }
  - { offset: 0x5E39, size: 0x8, addend: 0x0, symName: __ZNSt3__19basic_iosIcNS_11char_traitsIcEEE3tieB8ne180100EPNS_13basic_ostreamIcS2_EE, symObjAddr: 0x550, symBinAddr: 0x100002B0C, symSize: 0x2C }
  - { offset: 0x5E91, size: 0x8, addend: 0x0, symName: __ZNKSt3__16__lessIvvEclB8ne180100IiiEEbRKT_RKT0_, symObjAddr: 0x754, symBinAddr: 0x100002D10, symSize: 0x34 }
  - { offset: 0x5EF7, size: 0x8, addend: 0x0, symName: __ZNKSt16initializer_listIiE5beginB8ne180100Ev, symObjAddr: 0x7B8, symBinAddr: 0x100002D74, symSize: 0x18 }
  - { offset: 0x5F1B, size: 0x8, addend: 0x0, symName: __ZNKSt16initializer_listIiE3endB8ne180100Ev, symObjAddr: 0x7D0, symBinAddr: 0x100002D8C, symSize: 0x20 }
  - { offset: 0x5F49, size: 0x8, addend: 0x0, symName: __ZNKSt3__110__identityclB8ne180100IRKiEEOT_S5_, symObjAddr: 0xA88, symBinAddr: 0x100003044, symSize: 0x18 }
  - { offset: 0x5F89, size: 0x8, addend: 0x0, symName: __ZNKSt3__110__identityclB8ne180100IRiEEOT_S4_, symObjAddr: 0xD14, symBinAddr: 0x1000032D0, symSize: 0x18 }
  - { offset: 0x5FE2, size: 0x8, addend: 0x0, symName: __ZNKSt3__113basic_ostreamIcNS_11char_traitsIcEEE6sentrycvbB8ne180100Ev, symObjAddr: 0xF18, symBinAddr: 0x1000034D4, symSize: 0x1C }
  - { offset: 0x6006, size: 0x8, addend: 0x0, symName: __ZNSt3__119ostreambuf_iteratorIcNS_11char_traitsIcEEEC1B8ne180100ERNS_13basic_ostreamIcS2_EE, symObjAddr: 0x1174, symBinAddr: 0x100003730, symSize: 0x34 }
  - { offset: 0x603C, size: 0x8, addend: 0x0, symName: __ZNKSt3__18ios_base5flagsB8ne180100Ev, symObjAddr: 0x11A8, symBinAddr: 0x100003764, symSize: 0x18 }
  - { offset: 0x6062, size: 0x8, addend: 0x0, symName: __ZNKSt3__19basic_iosIcNS_11char_traitsIcEEE4fillB8ne180100Ev, symObjAddr: 0x11C0, symBinAddr: 0x10000377C, symSize: 0x64 }
  - { offset: 0x6088, size: 0x8, addend: 0x0, symName: __ZNKSt3__119ostreambuf_iteratorIcNS_11char_traitsIcEEE6failedB8ne180100Ev, symObjAddr: 0x1224, symBinAddr: 0x1000037E0, symSize: 0x24 }
  - { offset: 0x60AC, size: 0x8, addend: 0x0, symName: __ZNSt3__19basic_iosIcNS_11char_traitsIcEEE8setstateB8ne180100Ej, symObjAddr: 0x1248, symBinAddr: 0x100003804, symSize: 0x2C }
  - { offset: 0x60DF, size: 0x8, addend: 0x0, symName: __ZNKSt3__18ios_base5widthB8ne180100Ev, symObjAddr: 0x1284, symBinAddr: 0x100003840, symSize: 0x18 }
  - { offset: 0x6105, size: 0x8, addend: 0x0, symName: __ZNSt3__115basic_streambufIcNS_11char_traitsIcEEE5sputnB8ne180100EPKcl, symObjAddr: 0x129C, symBinAddr: 0x100003858, symSize: 0x3C }
  - { offset: 0x6145, size: 0x8, addend: 0x0, symName: __ZNSt3__112basic_stringIcNS_11char_traitsIcEENS_9allocatorIcEEEC1B8ne180100Emc, symObjAddr: 0x12D8, symBinAddr: 0x100003894, symSize: 0x3C }
  - { offset: 0x618B, size: 0x8, addend: 0x0, symName: __ZNSt3__112basic_stringIcNS_11char_traitsIcEENS_9allocatorIcEEE4dataB8ne180100Ev, symObjAddr: 0x1314, symBinAddr: 0x1000038D0, symSize: 0x28 }
  - { offset: 0x61AF, size: 0x8, addend: 0x0, symName: __ZNSt3__18ios_base5widthB8ne180100El, symObjAddr: 0x133C, symBinAddr: 0x1000038F8, symSize: 0x2C }
  - { offset: 0x61F3, size: 0x8, addend: 0x0, symName: __ZNSt3__112basic_stringIcNS_11char_traitsIcEENS_9allocatorIcEEEC2B8ne180100Emc, symObjAddr: 0x1368, symBinAddr: 0x100003924, symSize: 0x4C }
  - { offset: 0x623E, size: 0x8, addend: 0x0, symName: __ZNSt3__117__compressed_pairINS_12basic_stringIcNS_11char_traitsIcEENS_9allocatorIcEEE5__repES5_EC1B8ne180100INS_18__default_init_tagESA_EEOT_OT0_, symObjAddr: 0x13B4, symBinAddr: 0x100003970, symSize: 0x3C }
  - { offset: 0x6294, size: 0x8, addend: 0x0, symName: __ZNSt3__117__compressed_pairINS_12basic_stringIcNS_11char_traitsIcEENS_9allocatorIcEEE5__repES5_EC2B8ne180100INS_18__default_init_tagESA_EEOT_OT0_, symObjAddr: 0x13F0, symBinAddr: 0x1000039AC, symSize: 0x3C }
  - { offset: 0x62EA, size: 0x8, addend: 0x0, symName: __ZNSt3__122__compressed_pair_elemINS_12basic_stringIcNS_11char_traitsIcEENS_9allocatorIcEEE5__repELi0ELb0EEC2B8ne180100ENS_18__default_init_tagE, symObjAddr: 0x142C, symBinAddr: 0x1000039E8, symSize: 0x14 }
  - { offset: 0x631C, size: 0x8, addend: 0x0, symName: __ZNSt3__122__compressed_pair_elemINS_9allocatorIcEELi1ELb1EEC2B8ne180100ENS_18__default_init_tagE, symObjAddr: 0x1440, symBinAddr: 0x1000039FC, symSize: 0x2C }
  - { offset: 0x634E, size: 0x8, addend: 0x0, symName: __ZNSt3__19allocatorIcEC2B8ne180100Ev, symObjAddr: 0x146C, symBinAddr: 0x100003A28, symSize: 0x2C }
  - { offset: 0x6376, size: 0x8, addend: 0x0, symName: __ZNSt3__116__non_trivial_ifILb1ENS_9allocatorIcEEEC2B8ne180100Ev, symObjAddr: 0x1498, symBinAddr: 0x100003A54, symSize: 0x14 }
  - { offset: 0x639E, size: 0x8, addend: 0x0, symName: __ZNSt3__112basic_stringIcNS_11char_traitsIcEENS_9allocatorIcEEE13__get_pointerB8ne180100Ev, symObjAddr: 0x14C0, symBinAddr: 0x100003A7C, symSize: 0x54 }
  - { offset: 0x63C2, size: 0x8, addend: 0x0, symName: __ZNKSt3__112basic_stringIcNS_11char_traitsIcEENS_9allocatorIcEEE9__is_longB8ne180100Ev, symObjAddr: 0x1514, symBinAddr: 0x100003AD0, symSize: 0x38 }
  - { offset: 0x63E6, size: 0x8, addend: 0x0, symName: __ZNSt3__112basic_stringIcNS_11char_traitsIcEENS_9allocatorIcEEE18__get_long_pointerB8ne180100Ev, symObjAddr: 0x154C, symBinAddr: 0x100003B08, symSize: 0x28 }
  - { offset: 0x640A, size: 0x8, addend: 0x0, symName: __ZNSt3__112basic_stringIcNS_11char_traitsIcEENS_9allocatorIcEEE19__get_short_pointerB8ne180100Ev, symObjAddr: 0x1574, symBinAddr: 0x100003B30, symSize: 0x28 }
  - { offset: 0x642E, size: 0x8, addend: 0x0, symName: __ZNKSt3__117__compressed_pairINS_12basic_stringIcNS_11char_traitsIcEENS_9allocatorIcEEE5__repES5_E5firstB8ne180100Ev, symObjAddr: 0x159C, symBinAddr: 0x100003B58, symSize: 0x24 }
  - { offset: 0x6452, size: 0x8, addend: 0x0, symName: __ZNKSt3__122__compressed_pair_elemINS_12basic_stringIcNS_11char_traitsIcEENS_9allocatorIcEEE5__repELi0ELb0EE5__getB8ne180100Ev, symObjAddr: 0x15C0, symBinAddr: 0x100003B7C, symSize: 0x14 }
  - { offset: 0x6476, size: 0x8, addend: 0x0, symName: __ZNSt3__117__compressed_pairINS_12basic_stringIcNS_11char_traitsIcEENS_9allocatorIcEEE5__repES5_E5firstB8ne180100Ev, symObjAddr: 0x15D4, symBinAddr: 0x100003B90, symSize: 0x24 }
  - { offset: 0x649A, size: 0x8, addend: 0x0, symName: __ZNSt3__122__compressed_pair_elemINS_12basic_stringIcNS_11char_traitsIcEENS_9allocatorIcEEE5__repELi0ELb0EE5__getB8ne180100Ev, symObjAddr: 0x15F8, symBinAddr: 0x100003BB4, symSize: 0x14 }
  - { offset: 0x64BE, size: 0x8, addend: 0x0, symName: __ZNSt3__114pointer_traitsIPcE10pointer_toB8ne180100ERc, symObjAddr: 0x160C, symBinAddr: 0x100003BC8, symSize: 0x14 }
  - { offset: 0x64E0, size: 0x8, addend: 0x0, symName: __ZNSt3__119ostreambuf_iteratorIcNS_11char_traitsIcEEEC2B8ne180100ERNS_13basic_ostreamIcS2_EE, symObjAddr: 0x1620, symBinAddr: 0x100003BDC, symSize: 0x54 }
  - { offset: 0x6516, size: 0x8, addend: 0x0, symName: __ZNKSt3__19basic_iosIcNS_11char_traitsIcEEE5rdbufB8ne180100Ev, symObjAddr: 0x1674, symBinAddr: 0x100003C30, symSize: 0x24 }
  - { offset: 0x653C, size: 0x8, addend: 0x0, symName: __ZNKSt3__18ios_base5rdbufB8ne180100Ev, symObjAddr: 0x1698, symBinAddr: 0x100003C54, symSize: 0x18 }
  - { offset: 0x6560, size: 0x8, addend: 0x0, symName: __ZNSt3__111char_traitsIcE11eq_int_typeB8ne180100Eii, symObjAddr: 0x16B0, symBinAddr: 0x100003C6C, symSize: 0x28 }
  - { offset: 0x6592, size: 0x8, addend: 0x0, symName: __ZNSt3__111char_traitsIcE3eofB8ne180100Ev, symObjAddr: 0x16D8, symBinAddr: 0x100003C94, symSize: 0x8 }
  - { offset: 0x65A5, size: 0x8, addend: 0x0, symName: __ZNKSt3__19basic_iosIcNS_11char_traitsIcEEE5widenB8ne180100Ec, symObjAddr: 0x16E0, symBinAddr: 0x100003C9C, symSize: 0x84 }
  - { offset: 0x661C, size: 0x8, addend: 0x0, symName: __ZNKSt3__15ctypeIcE5widenB8ne180100Ec, symObjAddr: 0x1790, symBinAddr: 0x100003D4C, symSize: 0x38 }
  - { offset: 0x664F, size: 0x8, addend: 0x0, symName: __ZNSt3__18ios_base8setstateB8ne180100Ej, symObjAddr: 0x17C8, symBinAddr: 0x100003D84, symSize: 0x34 }
...
